; Function Attrs: mustprogress uwtable
define dso_local void @_ZN11FactPointTo26aggregate_all_pointto_setsEv() local_unnamed_addr #6 align 2 personality ptr @__gxx_personality_v0 {
  %1 = tail call noundef nonnull align 8 dereferenceable(24) ptr @_Z17get_all_functionsv()
  %2 = getelementptr inbounds nuw i8, ptr %1, i64 8
  %3 = load ptr, ptr %2, align 8, !tbaa !167
  %4 = load ptr, ptr %1, align 8, !tbaa !170
  %.not15 = icmp eq ptr %3, %4
  br i1 %.not15, label %._crit_edge, label %.lr.ph14

.lr.ph14:                                         ; preds = %0, %.loopexit
  %5 = phi ptr [ %20, %.loopexit ], [ %4, %0 ]
  %.013 = phi i64 [ %18, %.loopexit ], [ 0, %0 ]
  %6 = getelementptr inbounds nuw ptr, ptr %5, i64 %.013
  %7 = load ptr, ptr %6, align 8, !tbaa !171
  %8 = getelementptr inbounds nuw i8, ptr %7, i64 267
  %9 = load i8, ptr %8, align 1, !tbaa !172, !range !146, !noundef !139
  %10 = trunc nuw i8 %9 to i1
  br i1 %10, label %.loopexit, label %11

11:                                               ; preds = %.lr.ph14
  %12 = tail call noundef ptr @_Z21get_fact_mgr_for_funcPK8Function(ptr noundef nonnull %7)
  %13 = getelementptr inbounds nuw i8, ptr %12, i64 168
  %14 = load ptr, ptr %13, align 8, !tbaa !173
  %15 = getelementptr inbounds nuw i8, ptr %12, i64 152
  %.not11 = icmp eq ptr %14, %15
  br i1 %.not11, label %.loopexit, label %.lr.ph

.lr.ph:                                           ; preds = %11, %.lr.ph
  %.sroa.08.012 = phi ptr [ %17, %.lr.ph ], [ %14, %11 ]
  %16 = getelementptr inbounds nuw i8, ptr %.sroa.08.012, i64 40
  tail call void @_ZN11FactPointTo18update_ptr_aliasesERKSt6vectorIP4FactSaIS2_EERS0_IPK8VariableSaIS9_EERS0_ISB_SaISB_EE(ptr noundef nonnull align 8 dereferenceable(24) %16, ptr noundef nonnull align 8 dereferenceable(24) @_ZN11FactPointTo8all_ptrsE, ptr noundef nonnull align 8 dereferenceable(24) @_ZN11FactPointTo11all_aliasesE)
  %17 = tail call noundef ptr @_ZSt18_Rb_tree_incrementPSt18_Rb_tree_node_base(ptr noundef %.sroa.08.012) #25
  %.not = icmp eq ptr %17, %15
  br i1 %.not, label %.loopexit, label %.lr.ph, !llvm.loop !178

.loopexit:                                        ; preds = %.lr.ph, %11, %.lr.ph14
  %18 = add nuw i64 %.013, 1
  %19 = load ptr, ptr %2, align 8, !tbaa !167
  %20 = load ptr, ptr %1, align 8, !tbaa !170
  %21 = ptrtoint ptr %19 to i64
  %22 = ptrtoint ptr %20 to i64
  %23 = sub i64 %21, %22
  %24 = ashr exact i64 %23, 3
  %25 = icmp ult i64 %18, %24
  br i1 %25, label %.lr.ph14, label %._crit_edge, !llvm.loop !179

._crit_edge:                                      ; preds = %.loopexit, %0
  ret void
}